target datalayout = "e-m:e-p270:32:32-p271:32:32-p272:64:64-i64:64-i128:128-f80:128-n8:16:32:64-S128"
target triple = "x86_64-pc-linux-gnu"

%"struct.Yosys::RTLIL::Const" = type { i16, i8, %union.anon }
%union.anon = type { %"class.std::__cxx11::basic_string" }
%"class.std::__cxx11::basic_string" = type { %"struct.std::__cxx11::basic_string<char>::_Alloc_hider", i64, %union.anon.3 }
%"struct.std::__cxx11::basic_string<char>::_Alloc_hider" = type { ptr }
%union.anon.3 = type { i64, [8 x i8] }

; Function Attrs: mustprogress uwtable
define void @_ZN5Yosys5RTLIL9const_xorERKNS0_5ConstES3_bbi(ptr dead_on_unwind noalias writable sret(%"struct.Yosys::RTLIL::Const") align 8 %0, ptr noundef nonnull align 8 dereferenceable(40) %1, ptr noundef nonnull align 8 dereferenceable(40) %2, i1 noundef zeroext %3, i1 noundef zeroext %4, i32 noundef %5) #4 personality ptr @__gxx_personality_v0 {
  %7 = alloca ptr, align 8
  %8 = alloca ptr, align 8
  %9 = alloca ptr, align 8
  %10 = alloca i8, align 1
  %11 = alloca i8, align 1
  %12 = alloca i32, align 4
  %13 = alloca %"struct.Yosys::RTLIL::Const", align 8
  %14 = alloca %"struct.Yosys::RTLIL::Const", align 8
  %15 = alloca ptr, align 8
  %16 = alloca i32, align 4
  store ptr %0, ptr %7, align 8
  store ptr %1, ptr %8, align 8, !tbaa !6
  store ptr %2, ptr %9, align 8, !tbaa !6
  %17 = zext i1 %3 to i8
  store i8 %17, ptr %10, align 1, !tbaa !11
  %18 = zext i1 %4 to i8
  store i8 %18, ptr %11, align 1, !tbaa !11
  store i32 %5, ptr %12, align 4, !tbaa !13
  %19 = load ptr, ptr %8, align 8, !tbaa !6
  call void @_ZN5Yosys5RTLIL5ConstC1ERKS1_(ptr noundef nonnull align 8 dereferenceable(40) %13, ptr noundef nonnull align 8 dereferenceable(40) %19)
  %20 = load ptr, ptr %9, align 8, !tbaa !6
  invoke void @_ZN5Yosys5RTLIL5ConstC1ERKS1_(ptr noundef nonnull align 8 dereferenceable(40) %14, ptr noundef nonnull align 8 dereferenceable(40) %20)
          to label %21 unwind label %28

21:                                               ; preds = %6
  %22 = load i8, ptr %10, align 1, !tbaa !11, !range !15, !noundef !16
  %23 = trunc i8 %22 to i1
  %24 = load i8, ptr %11, align 1, !tbaa !11, !range !15, !noundef !16
  %25 = trunc i8 %24 to i1
  %26 = load i32, ptr %12, align 4, !tbaa !13
  invoke void @_ZN5YosysL13logic_wrapperEPFNS_5RTLIL5StateES1_S1_ENS0_5ConstES4_bbi(ptr dead_on_unwind writable sret(%"struct.Yosys::RTLIL::Const") align 8 %0, ptr noundef @_ZN5YosysL9logic_xorENS_5RTLIL5StateES1_, ptr noundef %13, ptr noundef %14, i1 noundef zeroext %23, i1 noundef zeroext %25, i32 noundef %26)
          to label %27 unwind label %32

27:                                               ; preds = %21
  call void @_ZN5Yosys5RTLIL5ConstD1Ev(ptr noundef nonnull align 8 dereferenceable(40) %14) #3
  call void @_ZN5Yosys5RTLIL5ConstD1Ev(ptr noundef nonnull align 8 dereferenceable(40) %13) #3
  ret void

28:                                               ; preds = %6
  %29 = landingpad { ptr, i32 }
          cleanup
  %30 = extractvalue { ptr, i32 } %29, 0
  store ptr %30, ptr %15, align 8
  %31 = extractvalue { ptr, i32 } %29, 1
  store i32 %31, ptr %16, align 4
  br label %36

32:                                               ; preds = %21
  %33 = landingpad { ptr, i32 }
          cleanup
  %34 = extractvalue { ptr, i32 } %33, 0
  store ptr %34, ptr %15, align 8
  %35 = extractvalue { ptr, i32 } %33, 1
  store i32 %35, ptr %16, align 4
  call void @_ZN5Yosys5RTLIL5ConstD1Ev(ptr noundef nonnull align 8 dereferenceable(40) %14) #3
  br label %36

36:                                               ; preds = %32, %28
  call void @_ZN5Yosys5RTLIL5ConstD1Ev(ptr noundef nonnull align 8 dereferenceable(40) %13) #3
  br label %37

37:                                               ; preds = %36
  %38 = load ptr, ptr %15, align 8
  %39 = load i32, ptr %16, align 4
  %40 = insertvalue { ptr, i32 } poison, ptr %38, 0
  %41 = insertvalue { ptr, i32 } %40, i32 %39, 1
  resume { ptr, i32 } %41
}